target datalayout = "e-m:e-p270:32:32-p271:32:32-p272:64:64-i64:64-i128:128-f80:128-n8:16:32:64-S128"
target triple = "x86_64-pc-linux-gnu"

%struct.IDAMemRec = type { ptr, double, ptr, ptr, i32, double, double, ptr, i32, i32, ptr, ptr, i32, i32, i32, ptr, ptr, i32, i32, double, double, ptr, i32, i32, i32, i32, ptr, ptr, i32, ptr, ptr, ptr, i32, double, i32, i32, double, ptr, ptr, ptr, i32, ptr, ptr, i32, i32, i32, double, ptr, ptr, ptr, [6 x ptr], [6 x double], [6 x double], [6 x double], [6 x double], [6 x double], ptr, ptr, ptr, ptr, ptr, ptr, ptr, ptr, ptr, ptr, ptr, ptr, ptr, ptr, ptr, ptr, ptr, [6 x ptr], ptr, ptr, ptr, ptr, [6 x ptr], ptr, ptr, ptr, ptr, ptr, ptr, ptr, ptr, ptr, ptr, ptr, ptr, ptr, ptr, ptr, ptr, [6 x ptr], ptr, ptr, ptr, ptr, ptr, double, ptr, ptr, i32, i32, i32, i32, i32, i32, i32, i32, double, double, double, i32, double, i32, i32, i32, i32, i32, double, double, double, double, double, double, double, double, double, double, double, double, double, double, double, double, double, i32, i32, i32, i32, i64, double, double, double, double, double, double, double, double, double, i64, i64, i64, i64, i64, i64, i64, i64, i64, i64, i64, i64, i64, i64, i64, i64, i64, i64, i64, i64, i64, i64, i64, i64, i64, i64, double, i32, i32, i32, i32, i32, i32, i32, i32, i32, i32, i32, i32, i32, ptr, i32, ptr, i32, ptr, i32, ptr, ptr, ptr, ptr, ptr, ptr, i32, i32, ptr, ptr, ptr, ptr, ptr, ptr, ptr, double, i32, i32, ptr, i32, ptr, ptr, double, double, double, ptr, ptr, ptr, double, double, i32, i32, i64, ptr, i32, ptr, [5 x double], ptr, ptr, i32, ptr, i32 }

@.str = private unnamed_addr constant [115 x i8] c"generated/home/dtcxzyw/WorkSpace/Projects/compilers/llvm-opt-benchmark/bench/sundials/sundials/src/idas/idas_nls.c\00", align 1
@.str.1 = private unnamed_addr constant [24 x i8] c"ida_mem = NULL illegal.\00", align 1
@__func__.idaNlsConvTest = private unnamed_addr constant [15 x i8] c"idaNlsConvTest\00", align 1

; Function Attrs: nounwind uwtable
define internal i32 @idaNlsConvTest(ptr noundef %0, ptr noundef %1, ptr noundef %2, double noundef %3, ptr noundef %4, ptr noundef %5) #0 {
  %7 = alloca i32, align 4
  %8 = alloca ptr, align 8
  %9 = alloca ptr, align 8
  %10 = alloca ptr, align 8
  %11 = alloca double, align 8
  %12 = alloca ptr, align 8
  %13 = alloca ptr, align 8
  %14 = alloca ptr, align 8
  %15 = alloca i32, align 4
  %16 = alloca i32, align 4
  %17 = alloca double, align 8
  %18 = alloca double, align 8
  %19 = alloca i32, align 4
  store ptr %0, ptr %8, align 8, !tbaa !7
  store ptr %1, ptr %9, align 8, !tbaa !33
  store ptr %2, ptr %10, align 8, !tbaa !33
  store double %3, ptr %11, align 8, !tbaa !43
  store ptr %4, ptr %12, align 8, !tbaa !33
  store ptr %5, ptr %13, align 8, !tbaa !3
  call void @llvm.lifetime.start.p0(i64 8, ptr %14) #3
  call void @llvm.lifetime.start.p0(i64 4, ptr %15) #3
  call void @llvm.lifetime.start.p0(i64 4, ptr %16) #3
  call void @llvm.lifetime.start.p0(i64 8, ptr %17) #3
  call void @llvm.lifetime.start.p0(i64 8, ptr %18) #3
  %20 = load ptr, ptr %13, align 8, !tbaa !3
  %21 = icmp eq ptr %20, null
  br i1 %21, label %22, label %23

22:                                               ; preds = %6
  call void (ptr, i32, i32, ptr, ptr, ptr, ...) @IDAProcessError(ptr noundef null, i32 noundef -20, i32 noundef 336, ptr noundef @__func__.idaNlsConvTest, ptr noundef @.str, ptr noundef @.str.1)
  store i32 -20, ptr %7, align 4
  store i32 1, ptr %19, align 4
  br label %78

23:                                               ; preds = %6
  %24 = load ptr, ptr %13, align 8, !tbaa !3
  store ptr %24, ptr %14, align 8, !tbaa !9
  %25 = load ptr, ptr %10, align 8, !tbaa !33
  %26 = load ptr, ptr %12, align 8, !tbaa !33
  %27 = call double @N_VWrmsNorm(ptr noundef %25, ptr noundef %26)
  store double %27, ptr %17, align 8, !tbaa !43
  %28 = load ptr, ptr %8, align 8, !tbaa !7
  %29 = call i32 @SUNNonlinSolGetCurIter(ptr noundef %28, ptr noundef %15)
  store i32 %29, ptr %16, align 4, !tbaa !30
  %30 = load i32, ptr %16, align 4, !tbaa !30
  %31 = icmp ne i32 %30, 0
  br i1 %31, label %32, label %33

32:                                               ; preds = %23
  store i32 -20, ptr %7, align 4
  store i32 1, ptr %19, align 4
  br label %78

33:                                               ; preds = %23
  %34 = load i32, ptr %15, align 4, !tbaa !30
  %35 = icmp eq i32 %34, 0
  br i1 %35, label %36, label %48

36:                                               ; preds = %33
  %37 = load double, ptr %17, align 8, !tbaa !43
  %38 = load ptr, ptr %14, align 8, !tbaa !9
  %39 = getelementptr inbounds nuw %struct.IDAMemRec, ptr %38, i32 0, i32 134
  store double %37, ptr %39, align 8, !tbaa !44
  %40 = load double, ptr %17, align 8, !tbaa !43
  %41 = load ptr, ptr %14, align 8, !tbaa !9
  %42 = getelementptr inbounds nuw %struct.IDAMemRec, ptr %41, i32 0, i32 137
  %43 = load double, ptr %42, align 8, !tbaa !45
  %44 = fmul double 1.000000e-04, %43
  %45 = fcmp ole double %40, %44
  br i1 %45, label %46, label %47

46:                                               ; preds = %36
  store i32 0, ptr %7, align 4
  store i32 1, ptr %19, align 4
  br label %78

47:                                               ; preds = %36
  br label %68

48:                                               ; preds = %33
  %49 = load double, ptr %17, align 8, !tbaa !43
  %50 = load ptr, ptr %14, align 8, !tbaa !9
  %51 = getelementptr inbounds nuw %struct.IDAMemRec, ptr %50, i32 0, i32 134
  %52 = load double, ptr %51, align 8, !tbaa !44
  %53 = fdiv double %49, %52
  %54 = load i32, ptr %15, align 4, !tbaa !30
  %55 = sitofp i32 %54 to double
  %56 = fdiv double 1.000000e+00, %55
  %57 = call double @SUNRpowerR(double noundef %53, double noundef %56)
  store double %57, ptr %18, align 8, !tbaa !43
  %58 = load double, ptr %18, align 8, !tbaa !43
  %59 = fcmp ogt double %58, 9.000000e-01
  br i1 %59, label %60, label %61

60:                                               ; preds = %48
  store i32 902, ptr %7, align 4
  store i32 1, ptr %19, align 4
  br label %78

61:                                               ; preds = %48
  %62 = load double, ptr %18, align 8, !tbaa !43
  %63 = load double, ptr %18, align 8, !tbaa !43
  %64 = fsub double 1.000000e+00, %63
  %65 = fdiv double %62, %64
  %66 = load ptr, ptr %14, align 8, !tbaa !9
  %67 = getelementptr inbounds nuw %struct.IDAMemRec, ptr %66, i32 0, i32 133
  store double %65, ptr %67, align 8, !tbaa !46
  br label %68

68:                                               ; preds = %61, %47
  %69 = load ptr, ptr %14, align 8, !tbaa !9
  %70 = getelementptr inbounds nuw %struct.IDAMemRec, ptr %69, i32 0, i32 133
  %71 = load double, ptr %70, align 8, !tbaa !46
  %72 = load double, ptr %17, align 8, !tbaa !43
  %73 = fmul double %71, %72
  %74 = load double, ptr %11, align 8, !tbaa !43
  %75 = fcmp ole double %73, %74
  br i1 %75, label %76, label %77

76:                                               ; preds = %68
  store i32 0, ptr %7, align 4
  store i32 1, ptr %19, align 4
  br label %78

77:                                               ; preds = %68
  store i32 901, ptr %7, align 4
  store i32 1, ptr %19, align 4
  br label %78

78:                                               ; preds = %77, %76, %60, %46, %32, %22
  call void @llvm.lifetime.end.p0(i64 8, ptr %18) #3
  call void @llvm.lifetime.end.p0(i64 8, ptr %17) #3
  call void @llvm.lifetime.end.p0(i64 4, ptr %16) #3
  call void @llvm.lifetime.end.p0(i64 4, ptr %15) #3
  call void @llvm.lifetime.end.p0(i64 8, ptr %14) #3
  %79 = load i32, ptr %7, align 4
  ret i32 %79
}